; ModuleID = '4/1762.c'
source_filename = "4/1762.c"
target datalayout = "e-m:e-p270:32:32-p271:32:32-p272:64:64-i64:64-f80:128-n8:16:32:64-S128"
target triple = "x86_64-pc-linux-gnu"

@.str = private unnamed_addr constant [6 x i8] c"%d %d\00", align 1
@.str.1 = private unnamed_addr constant [3 x i8] c"%d\00", align 1
@.str.2 = private unnamed_addr constant [4 x i8] c"%d\0A\00", align 1

; Function Attrs: noinline nounwind uwtable
define dso_local i32 @main() #0 {
  %1 = alloca i32, align 4
  %2 = alloca i32, align 4
  %3 = alloca [100 x [100 x i32]], align 16
  %4 = alloca i32, align 4
  %5 = alloca i32, align 4
  %6 = alloca i32, align 4
  %7 = alloca i32, align 4
  store i32 0, i32* %1, align 4
  %8 = call i32 (i8*, ...) @__isoc99_scanf(i8* getelementptr inbounds ([6 x i8], [6 x i8]* @.str, i64 0, i64 0), i32* %7, i32* %6)
  store i32 0, i32* %5, align 4
  br label %9

9:                                                ; preds = %30, %0
  %10 = load i32, i32* %5, align 4
  %11 = load i32, i32* %7, align 4
  %12 = icmp slt i32 %10, %11
  br i1 %12, label %13, label %33

13:                                               ; preds = %9
  store i32 0, i32* %4, align 4
  br label %14

14:                                               ; preds = %26, %13
  %15 = load i32, i32* %4, align 4
  %16 = load i32, i32* %6, align 4
  %17 = icmp slt i32 %15, %16
  br i1 %17, label %18, label %29

18:                                               ; preds = %14
  %19 = load i32, i32* %5, align 4
  %20 = sext i32 %19 to i64
  %21 = getelementptr inbounds [100 x [100 x i32]], [100 x [100 x i32]]* %3, i64 0, i64 %20
  %22 = load i32, i32* %4, align 4
  %23 = sext i32 %22 to i64
  %24 = getelementptr inbounds [100 x i32], [100 x i32]* %21, i64 0, i64 %23
  %25 = call i32 (i8*, ...) @__isoc99_scanf(i8* getelementptr inbounds ([3 x i8], [3 x i8]* @.str.1, i64 0, i64 0), i32* %24)
  br label %26

26:                                               ; preds = %18
  %27 = load i32, i32* %4, align 4
  %28 = add nsw i32 %27, 1
  store i32 %28, i32* %4, align 4
  br label %14

29:                                               ; preds = %14
  br label %30

30:                                               ; preds = %29
  %31 = load i32, i32* %5, align 4
  %32 = add nsw i32 %31, 1
  store i32 %32, i32* %5, align 4
  br label %9

33:                                               ; preds = %9
  store i32 0, i32* %2, align 4
  br label %34

34:                                               ; preds = %106, %33
  %35 = load i32, i32* %2, align 4
  %36 = load i32, i32* %6, align 4
  %37 = load i32, i32* %7, align 4
  %38 = add nsw i32 %36, %37
  %39 = sub nsw i32 %38, 1
  %40 = icmp slt i32 %35, %39
  br i1 %40, label %41, label %109

41:                                               ; preds = %34
  %42 = load i32, i32* %2, align 4
  %43 = load i32, i32* %6, align 4
  %44 = icmp slt i32 %42, %43
  br i1 %44, label %45, label %70

45:                                               ; preds = %41
  %46 = load i32, i32* %2, align 4
  store i32 %46, i32* %4, align 4
  store i32 0, i32* %5, align 4
  br label %47

47:                                               ; preds = %56, %45
  %48 = load i32, i32* %4, align 4
  %49 = icmp sge i32 %48, 0
  br i1 %49, label %50, label %54

50:                                               ; preds = %47
  %51 = load i32, i32* %5, align 4
  %52 = load i32, i32* %7, align 4
  %53 = icmp slt i32 %51, %52
  br label %54

54:                                               ; preds = %50, %47
  %55 = phi i1 [ false, %47 ], [ %53, %50 ]
  br i1 %55, label %56, label %69

56:                                               ; preds = %54
  %57 = load i32, i32* %5, align 4
  %58 = sext i32 %57 to i64
  %59 = getelementptr inbounds [100 x [100 x i32]], [100 x [100 x i32]]* %3, i64 0, i64 %58
  %60 = load i32, i32* %4, align 4
  %61 = sext i32 %60 to i64
  %62 = getelementptr inbounds [100 x i32], [100 x i32]* %59, i64 0, i64 %61
  %63 = load i32, i32* %62, align 4
  %64 = call i32 (i8*, ...) @printf(i8* getelementptr inbounds ([4 x i8], [4 x i8]* @.str.2, i64 0, i64 0), i32 %63)
  %65 = load i32, i32* %4, align 4
  %66 = sub nsw i32 %65, 1
  store i32 %66, i32* %4, align 4
  %67 = load i32, i32* %5, align 4
  %68 = add nsw i32 %67, 1
  store i32 %68, i32* %5, align 4
  br label %47

69:                                               ; preds = %54
  br label %105

70:                                               ; preds = %41
  %71 = load i32, i32* %2, align 4
  %72 = load i32, i32* %6, align 4
  %73 = icmp sge i32 %71, %72
  br i1 %73, label %74, label %104

74:                                               ; preds = %70
  %75 = load i32, i32* %6, align 4
  %76 = sub nsw i32 %75, 1
  store i32 %76, i32* %4, align 4
  %77 = load i32, i32* %2, align 4
  %78 = load i32, i32* %6, align 4
  %79 = sub nsw i32 %77, %78
  %80 = add nsw i32 %79, 1
  store i32 %80, i32* %5, align 4
  br label %81

81:                                               ; preds = %90, %74
  %82 = load i32, i32* %4, align 4
  %83 = icmp sge i32 %82, 0
  br i1 %83, label %84, label %88

84:                                               ; preds = %81
  %85 = load i32, i32* %5, align 4
  %86 = load i32, i32* %7, align 4
  %87 = icmp slt i32 %85, %86
  br label %88

88:                                               ; preds = %84, %81
  %89 = phi i1 [ false, %81 ], [ %87, %84 ]
  br i1 %89, label %90, label %103

90:                                               ; preds = %88
  %91 = load i32, i32* %5, align 4
  %92 = sext i32 %91 to i64
  %93 = getelementptr inbounds [100 x [100 x i32]], [100 x [100 x i32]]* %3, i64 0, i64 %92
  %94 = load i32, i32* %4, align 4
  %95 = sext i32 %94 to i64
  %96 = getelementptr inbounds [100 x i32], [100 x i32]* %93, i64 0, i64 %95
  %97 = load i32, i32* %96, align 4
  %98 = call i32 (i8*, ...) @printf(i8* getelementptr inbounds ([4 x i8], [4 x i8]* @.str.2, i64 0, i64 0), i32 %97)
  %99 = load i32, i32* %4, align 4
  %100 = sub nsw i32 %99, 1
  store i32 %100, i32* %4, align 4
  %101 = load i32, i32* %5, align 4
  %102 = add nsw i32 %101, 1
  store i32 %102, i32* %5, align 4
  br label %81

103:                                              ; preds = %88
  br label %104

104:                                              ; preds = %103, %70
  br label %105

105:                                              ; preds = %104, %69
  br label %106

106:                                              ; preds = %105
  %107 = load i32, i32* %2, align 4
  %108 = add nsw i32 %107, 1
  store i32 %108, i32* %2, align 4
  br label %34

109:                                              ; preds = %34
  ret i32 0
}

declare dso_local i32 @__isoc99_scanf(i8*, ...) #1

declare dso_local i32 @printf(i8*, ...) #1


!llvm.module.flags = !{!0}
!llvm.ident = !{!1}

!0 = !{i32 1, !"wchar_size", i32 4}
!1 = !{!"clang version 10.0.0-4ubuntu1 "}
