; ModuleID = 'source-C-CXX/3/1762.c'
source_filename = "source-C-CXX/3/1762.c"
target datalayout = "e-m:e-p270:32:32-p271:32:32-p272:64:64-i64:64-f80:128-n8:16:32:64-S128"
target triple = "x86_64-pc-linux-gnu"

@.str = private unnamed_addr constant [6 x i8] c"%d %d\00", align 1
@.str.1 = private unnamed_addr constant [3 x i8] c"%d\00", align 1
@.str.2 = private unnamed_addr constant [4 x i8] c"%d\0A\00", align 1

; Function Attrs: nofree nounwind sspstrong uwtable
define dso_local i32 @main() local_unnamed_addr #0 {
  %1 = alloca [100 x [100 x i32]], align 16
  %2 = alloca i32, align 4
  %3 = alloca i32, align 4
  %4 = bitcast [100 x [100 x i32]]* %1 to i8*
  call void @llvm.lifetime.start.p0i8(i64 40000, i8* nonnull %4) #3
  %5 = bitcast i32* %2 to i8*
  call void @llvm.lifetime.start.p0i8(i64 4, i8* nonnull %5) #3
  %6 = bitcast i32* %3 to i8*
  call void @llvm.lifetime.start.p0i8(i64 4, i8* nonnull %6) #3
  %7 = call i32 (i8*, ...) @__isoc99_scanf(i8* getelementptr inbounds ([6 x i8], [6 x i8]* @.str, i64 0, i64 0), i32* nonnull %3, i32* nonnull %2)
  %8 = load i32, i32* %3, align 4, !tbaa !5
  %9 = icmp sgt i32 %8, 0
  %10 = load i32, i32* %2, align 4, !tbaa !5
  %11 = icmp sgt i32 %10, 0
  %12 = select i1 %9, i1 %11, i1 false
  br i1 %12, label %13, label %18

13:                                               ; preds = %0, %34
  %14 = phi i32 [ %35, %34 ], [ %8, %0 ]
  %15 = phi i32 [ %36, %34 ], [ %10, %0 ]
  %16 = phi i64 [ %37, %34 ], [ 0, %0 ]
  %17 = icmp sgt i32 %15, 0
  br i1 %17, label %24, label %34

18:                                               ; preds = %34, %0
  %19 = phi i32 [ %8, %0 ], [ %35, %34 ]
  %20 = phi i32 [ %10, %0 ], [ %36, %34 ]
  %21 = add i32 %20, -1
  %22 = add i32 %21, %19
  %23 = icmp sgt i32 %22, 0
  br i1 %23, label %40, label %97

24:                                               ; preds = %13, %24
  %25 = phi i64 [ %28, %24 ], [ 0, %13 ]
  %26 = getelementptr inbounds [100 x [100 x i32]], [100 x [100 x i32]]* %1, i64 0, i64 %16, i64 %25
  %27 = call i32 (i8*, ...) @__isoc99_scanf(i8* getelementptr inbounds ([3 x i8], [3 x i8]* @.str.1, i64 0, i64 0), i32* nonnull %26)
  %28 = add nuw nsw i64 %25, 1
  %29 = load i32, i32* %2, align 4, !tbaa !5
  %30 = sext i32 %29 to i64
  %31 = icmp slt i64 %28, %30
  br i1 %31, label %24, label %32, !llvm.loop !9

32:                                               ; preds = %24
  %33 = load i32, i32* %3, align 4, !tbaa !5
  br label %34

34:                                               ; preds = %32, %13
  %35 = phi i32 [ %33, %32 ], [ %14, %13 ]
  %36 = phi i32 [ %29, %32 ], [ %15, %13 ]
  %37 = add nuw nsw i64 %16, 1
  %38 = sext i32 %35 to i64
  %39 = icmp slt i64 %37, %38
  br i1 %39, label %13, label %18, !llvm.loop !11

40:                                               ; preds = %18, %88
  %41 = phi i32 [ %89, %88 ], [ %19, %18 ]
  %42 = phi i64 [ %96, %88 ], [ 0, %18 ]
  %43 = phi i32 [ %95, %88 ], [ 1, %18 ]
  %44 = phi i32 [ %91, %88 ], [ %20, %18 ]
  %45 = phi i32 [ %90, %88 ], [ 0, %18 ]
  %46 = icmp slt i32 %45, %44
  br i1 %46, label %47, label %62

47:                                               ; preds = %40
  %48 = icmp sgt i32 %41, 0
  br i1 %48, label %49, label %88

49:                                               ; preds = %47, %49
  %50 = phi i64 [ %61, %49 ], [ %42, %47 ]
  %51 = phi i64 [ %55, %49 ], [ 0, %47 ]
  %52 = getelementptr inbounds [100 x [100 x i32]], [100 x [100 x i32]]* %1, i64 0, i64 %51, i64 %50
  %53 = load i32, i32* %52, align 4, !tbaa !5
  %54 = call i32 (i8*, ...) @printf(i8* nonnull dereferenceable(1) getelementptr inbounds ([4 x i8], [4 x i8]* @.str.2, i64 0, i64 0), i32 %53)
  %55 = add nuw nsw i64 %51, 1
  %56 = icmp sgt i64 %50, 0
  %57 = load i32, i32* %3, align 4
  %58 = sext i32 %57 to i64
  %59 = icmp slt i64 %55, %58
  %60 = select i1 %56, i1 %59, i1 false
  %61 = add nsw i64 %50, -1
  br i1 %60, label %49, label %88, !llvm.loop !13

62:                                               ; preds = %40
  %63 = sub nsw i32 %45, %44
  %64 = add nsw i32 %63, 1
  %65 = icmp sgt i32 %44, 0
  %66 = icmp slt i32 %64, %41
  %67 = select i1 %65, i1 %66, i1 false
  br i1 %67, label %68, label %88

68:                                               ; preds = %62
  %69 = sub i32 %43, %44
  %70 = sext i32 %69 to i64
  %71 = zext i32 %44 to i64
  br label %72

72:                                               ; preds = %68, %72
  %73 = phi i64 [ %71, %68 ], [ %87, %72 ]
  %74 = phi i64 [ %70, %68 ], [ %81, %72 ]
  %75 = phi i32 [ %44, %68 ], [ %76, %72 ]
  %76 = add nsw i32 %75, -1
  %77 = zext i32 %76 to i64
  %78 = getelementptr inbounds [100 x [100 x i32]], [100 x [100 x i32]]* %1, i64 0, i64 %74, i64 %77
  %79 = load i32, i32* %78, align 4, !tbaa !5
  %80 = call i32 (i8*, ...) @printf(i8* nonnull dereferenceable(1) getelementptr inbounds ([4 x i8], [4 x i8]* @.str.2, i64 0, i64 0), i32 %79)
  %81 = add nsw i64 %74, 1
  %82 = icmp sgt i64 %73, 1
  %83 = load i32, i32* %3, align 4
  %84 = sext i32 %83 to i64
  %85 = icmp slt i64 %81, %84
  %86 = select i1 %82, i1 %85, i1 false
  %87 = add nsw i64 %73, -1
  br i1 %86, label %72, label %88, !llvm.loop !14

88:                                               ; preds = %72, %49, %62, %47
  %89 = phi i32 [ %41, %62 ], [ %41, %47 ], [ %57, %49 ], [ %83, %72 ]
  %90 = add nuw nsw i32 %45, 1
  %91 = load i32, i32* %2, align 4, !tbaa !5
  %92 = add i32 %91, -1
  %93 = add i32 %92, %89
  %94 = icmp slt i32 %90, %93
  %95 = add nuw i32 %43, 1
  %96 = add nuw nsw i64 %42, 1
  br i1 %94, label %40, label %97, !llvm.loop !15

97:                                               ; preds = %88, %18
  call void @llvm.lifetime.end.p0i8(i64 4, i8* nonnull %6) #3
  call void @llvm.lifetime.end.p0i8(i64 4, i8* nonnull %5) #3
  call void @llvm.lifetime.end.p0i8(i64 40000, i8* nonnull %4) #3
  ret i32 0
}

; Function Attrs: argmemonly mustprogress nofree nosync nounwind willreturn
declare void @llvm.lifetime.start.p0i8(i64 immarg, i8* nocapture) #1

; Function Attrs: nofree nounwind
declare noundef i32 @__isoc99_scanf(i8* nocapture noundef readonly, ...) local_unnamed_addr #2

; Function Attrs: nofree nounwind
declare noundef i32 @printf(i8* nocapture noundef readonly, ...) local_unnamed_addr #2

; Function Attrs: argmemonly mustprogress nofree nosync nounwind willreturn
declare void @llvm.lifetime.end.p0i8(i64 immarg, i8* nocapture) #1


!llvm.module.flags = !{!0, !1, !2, !3}
!llvm.ident = !{!4}

!0 = !{i32 1, !"wchar_size", i32 4}
!1 = !{i32 7, !"PIC Level", i32 2}
!2 = !{i32 7, !"PIE Level", i32 2}
!3 = !{i32 7, !"uwtable", i32 1}
!4 = !{!"clang version 13.0.0"}
!5 = !{!6, !6, i64 0}
!6 = !{!"int", !7, i64 0}
!7 = !{!"omnipotent char", !8, i64 0}
!8 = !{!"Simple C/C++ TBAA"}
!9 = distinct !{!9, !10}
!10 = !{!"llvm.loop.mustprogress"}
!11 = distinct !{!11, !10, !12}
!12 = !{!"llvm.loop.unswitch.partial.disable"}
!13 = distinct !{!13, !10}
!14 = distinct !{!14, !10}
!15 = distinct !{!15, !10}
